target datalayout = "e-m:e-p270:32:32-p271:32:32-p272:64:64-i64:64-i128:128-f80:128-n8:16:32:64-S128"
target triple = "x86_64-unknown-linux-gnu"

%"class.std::__cxx11::basic_string" = type { %"struct.std::__cxx11::basic_string<char>::_Alloc_hider", i64, %union.anon }
%"struct.std::__cxx11::basic_string<char>::_Alloc_hider" = type { ptr }
%union.anon = type { i64, [8 x i8] }
%"class.testing::internal::FilePath" = type { %"class.std::__cxx11::basic_string" }
%struct.stat = type { i64, i64, i64, i32, i32, i32, i32, i64, i64, i64, i64, %struct.timespec, %struct.timespec, %struct.timespec, [3 x i64] }
%struct.timespec = type { i64, i64 }

; Function Attrs: mustprogress nounwind uwtable
define linkonce_odr hidden noundef zeroext i1 @_ZN7testing8internal5posix5IsDirERK4stat(ptr noundef nonnull align 8 dereferenceable(144) %st) #5 comdat {
entry:
  %st.addr = alloca ptr, align 8
  store ptr %st, ptr %st.addr, align 8
  %0 = load ptr, ptr %st.addr, align 8
  %st_mode = getelementptr inbounds %struct.stat, ptr %0, i32 0, i32 3
  %1 = load i32, ptr %st_mode, align 8
  %and = and i32 %1, 61440
  %cmp = icmp eq i32 %and, 16384
  ret i1 %cmp
}

; Function Attrs: mustprogress nounwind uwtable
define linkonce_odr hidden noundef i32 @_ZN7testing8internal5posix4StatEPKcP4stat(ptr noundef %path, ptr noundef %buf) #5 comdat {
entry:
  %path.addr = alloca ptr, align 8
  %buf.addr = alloca ptr, align 8
  store ptr %path, ptr %path.addr, align 8
  store ptr %buf, ptr %buf.addr, align 8
  %0 = load ptr, ptr %path.addr, align 8
  %1 = load ptr, ptr %buf.addr, align 8
  %call = call i32 @stat(ptr noundef %0, ptr noundef %1) #3
  ret i32 %call
}

; Function Attrs: mustprogress nounwind uwtable
define linkonce_odr noundef ptr @_ZNK7testing8internal8FilePath5c_strEv(ptr noundef nonnull align 8 dereferenceable(32) %this) #5 comdat align 2 {
entry:
  %this.addr = alloca ptr, align 8
  store ptr %this, ptr %this.addr, align 8
  %this1 = load ptr, ptr %this.addr, align 8
  %pathname_ = getelementptr inbounds %"class.testing::internal::FilePath", ptr %this1, i32 0, i32 0
  %call = call noundef ptr @_ZNKSt7__cxx1112basic_stringIcSt11char_traitsIcESaIcEE5c_strEv(ptr noundef nonnull align 8 dereferenceable(32) %pathname_) #3
  ret ptr %call
}

; Function Attrs: mustprogress uwtable
define noundef zeroext i1 @_ZNK7testing8internal8FilePath15DirectoryExistsEv(ptr noundef nonnull align 8 dereferenceable(32) %this) #4 align 2 {
entry:
  %this.addr = alloca ptr, align 8
  %result = alloca i8, align 1
  %path = alloca ptr, align 8
  %file_stat = alloca %struct.stat, align 8
  store ptr %this, ptr %this.addr, align 8
  %this1 = load ptr, ptr %this.addr, align 8
  store i8 0, ptr %result, align 1
  store ptr %this1, ptr %path, align 8
  %0 = load ptr, ptr %path, align 8
  %call = call noundef ptr @_ZNK7testing8internal8FilePath5c_strEv(ptr noundef nonnull align 8 dereferenceable(32) %0)
  %call2 = call noundef i32 @_ZN7testing8internal5posix4StatEPKcP4stat(ptr noundef %call, ptr noundef %file_stat)
  %cmp = icmp eq i32 %call2, 0
  br i1 %cmp, label %land.rhs, label %land.end

land.rhs:                                         ; preds = %entry
  %call3 = call noundef zeroext i1 @_ZN7testing8internal5posix5IsDirERK4stat(ptr noundef nonnull align 8 dereferenceable(144) %file_stat)
  br label %land.end

land.end:                                         ; preds = %land.rhs, %entry
  %1 = phi i1 [ false, %entry ], [ %call3, %land.rhs ]
  %frombool = zext i1 %1 to i8
  store i8 %frombool, ptr %result, align 1
  %2 = load i8, ptr %result, align 1
  %tobool = trunc i8 %2 to i1
  ret i1 %tobool
}

; Function Attrs: mustprogress uwtable
define noundef zeroext i1 @_ZNK7testing8internal8FilePath12CreateFolderEv(ptr noundef nonnull align 8 dereferenceable(32) %this) #4 align 2 {
entry:
  %retval = alloca i1, align 1
  %this.addr = alloca ptr, align 8
  %result = alloca i32, align 4
  store ptr %this, ptr %this.addr, align 8
  %this1 = load ptr, ptr %this.addr, align 8
  %pathname_ = getelementptr inbounds %"class.testing::internal::FilePath", ptr %this1, i32 0, i32 0
  %call = call noundef ptr @_ZNKSt7__cxx1112basic_stringIcSt11char_traitsIcESaIcEE5c_strEv(ptr noundef nonnull align 8 dereferenceable(32) %pathname_) #3
  %call2 = call i32 @mkdir(ptr noundef %call, i32 noundef 511) #3
  store i32 %call2, ptr %result, align 4
  %0 = load i32, ptr %result, align 4
  %cmp = icmp eq i32 %0, -1
  br i1 %cmp, label %if.then, label %if.end

if.then:                                          ; preds = %entry
  %call3 = call noundef zeroext i1 @_ZNK7testing8internal8FilePath15DirectoryExistsEv(ptr noundef nonnull align 8 dereferenceable(32) %this1)
  store i1 %call3, ptr %retval, align 1
  br label %return

if.end:                                           ; preds = %entry
  store i1 true, ptr %retval, align 1
  br label %return

return:                                           ; preds = %if.end, %if.then
  %1 = load i1, ptr %retval, align 1
  ret i1 %1
}