; Function Attrs: mustprogress nounwind uwtable
define noundef zeroext i1 @_ZNK7testing8internal8FilePath12CreateFolderEv(ptr noundef nonnull align 8 dereferenceable(32) %this) local_unnamed_addr #7 align 2 {
entry:
  %file_stat.i = alloca %struct.stat, align 8
  %call = tail call noundef ptr @_ZNKSt7__cxx1112basic_stringIcSt11char_traitsIcESaIcEE5c_strEv(ptr noundef nonnull align 8 dereferenceable(32) %this) #47
  %call2 = tail call i32 @mkdir(ptr noundef %call, i32 noundef 511) #47
  %cmp = icmp eq i32 %call2, -1
  br i1 %cmp, label %if.then, label %return

if.then:                                          ; preds = %entry
  call void @llvm.lifetime.start.p0(i64 144, ptr nonnull %file_stat.i)
  %call.i.i = tail call noundef ptr @_ZNKSt7__cxx1112basic_stringIcSt11char_traitsIcESaIcEE5c_strEv(ptr noundef nonnull align 8 dereferenceable(32) %this) #47
  %call.i1.i = call noundef i32 @stat(ptr noundef %call.i.i, ptr noundef nonnull %file_stat.i) #47
  %cmp.i = icmp eq i32 %call.i1.i, 0
  %st_mode.i.i = getelementptr inbounds i8, ptr %file_stat.i, i64 24
  %0 = load i32, ptr %st_mode.i.i, align 8
  %and.i.i = and i32 %0, 61440
  %cmp.i.i = icmp eq i32 %and.i.i, 16384
  %1 = select i1 %cmp.i, i1 %cmp.i.i, i1 false
  call void @llvm.lifetime.end.p0(i64 144, ptr nonnull %file_stat.i)
  br label %return

return:                                           ; preds = %entry, %if.then
  %retval.0 = phi i1 [ %1, %if.then ], [ true, %entry ]
  ret i1 %retval.0
}